target datalayout = "e-m:e-p270:32:32-p271:32:32-p272:64:64-i64:64-i128:128-f80:128-n8:16:32:64-S128"
target triple = "x86_64-pc-linux-gnu"

%struct.AVFormatContext = type { ptr, ptr, ptr, ptr, ptr, i32, i32, ptr, i32, ptr, i32, ptr, ptr, i64, i64, i64, i32, i32, i32, i64, i64, ptr, i32, i32, ptr, i32, i32, i32, i32, ptr, i64, i32, i32, %struct.AVIOInterruptCB, i32, i32, i32, i32, i64, i32, i32, i32, i32, i32, i32, i32, i32, i32, i32, i32, i32, i64, i32, i32, i32, i32, i32, ptr, ptr, ptr, ptr, i32, ptr, ptr, ptr, ptr, i32, ptr, ptr, i64, ptr, ptr, ptr, i64 }
%struct.AVIOInterruptCB = type { ptr, ptr }
%struct.AVDictionaryEntry = type { ptr, ptr }

@.str.506 = private unnamed_addr constant [5 x i8] c"data\00", align 1

; Function Attrs: alwaysinline nounwind uwtable
define internal void @ffio_wfourcc(ptr noundef %0, ptr noundef %1) #6 {
  %3 = alloca ptr, align 8
  %4 = alloca ptr, align 8
  store ptr %0, ptr %3, align 8, !tbaa !31
  store ptr %1, ptr %4, align 8, !tbaa !38
  %5 = load ptr, ptr %3, align 8, !tbaa !31
  %6 = load ptr, ptr %4, align 8, !tbaa !38
  %7 = getelementptr inbounds i8, ptr %6, i64 0
  %8 = load i8, ptr %7, align 1, !tbaa !85
  %9 = zext i8 %8 to i32
  %10 = load ptr, ptr %4, align 8, !tbaa !38
  %11 = getelementptr inbounds i8, ptr %10, i64 1
  %12 = load i8, ptr %11, align 1, !tbaa !85
  %13 = zext i8 %12 to i32
  %14 = shl i32 %13, 8
  %15 = or i32 %9, %14
  %16 = load ptr, ptr %4, align 8, !tbaa !38
  %17 = getelementptr inbounds i8, ptr %16, i64 2
  %18 = load i8, ptr %17, align 1, !tbaa !85
  %19 = zext i8 %18 to i32
  %20 = shl i32 %19, 16
  %21 = or i32 %15, %20
  %22 = load ptr, ptr %4, align 8, !tbaa !38
  %23 = getelementptr inbounds i8, ptr %22, i64 3
  %24 = load i8, ptr %23, align 1, !tbaa !85
  %25 = zext i8 %24 to i32
  %26 = shl i32 %25, 24
  %27 = or i32 %21, %26
  call void @avio_wl32(ptr noundef %5, i32 noundef %27)
  ret void
}

; Function Attrs: inlinehint nounwind willreturn memory(read) uwtable
define available_externally i32 @atoi(ptr noundef nonnull %0) #13 {
  %2 = alloca ptr, align 8
  store ptr %0, ptr %2, align 8, !tbaa !38
  %3 = load ptr, ptr %2, align 8, !tbaa !38
  %4 = call i64 @strtol(ptr noundef %3, ptr noundef null, i32 noundef 10) #14
  %5 = trunc i64 %4 to i32
  ret i32 %5
}

; Function Attrs: nounwind uwtable
define internal i32 @mov_write_int8_metadata(ptr noundef %0, ptr noundef %1, ptr noundef %2, ptr noundef %3, i32 noundef %4) #0 {
  %6 = alloca i32, align 4
  %7 = alloca ptr, align 8
  %8 = alloca ptr, align 8
  %9 = alloca ptr, align 8
  %10 = alloca ptr, align 8
  %11 = alloca i32, align 4
  %12 = alloca ptr, align 8
  %13 = alloca i8, align 1
  %14 = alloca i32, align 4
  %15 = alloca i32, align 4
  store ptr %0, ptr %7, align 8, !tbaa !4
  store ptr %1, ptr %8, align 8, !tbaa !31
  store ptr %2, ptr %9, align 8, !tbaa !38
  store ptr %3, ptr %10, align 8, !tbaa !38
  store i32 %4, ptr %11, align 4, !tbaa !32
  call void @llvm.lifetime.start.p0(i64 8, ptr %12) #14
  store ptr null, ptr %12, align 8, !tbaa !210
  call void @llvm.lifetime.start.p0(i64 1, ptr %13) #14
  call void @llvm.lifetime.start.p0(i64 4, ptr %14) #14
  %16 = load i32, ptr %11, align 4, !tbaa !32
  %17 = add nsw i32 24, %16
  store i32 %17, ptr %14, align 4, !tbaa !32
  %18 = load i32, ptr %11, align 4, !tbaa !32
  %19 = icmp ne i32 %18, 1
  br i1 %19, label %20, label %24

20:                                               ; preds = %5
  %21 = load i32, ptr %11, align 4, !tbaa !32
  %22 = icmp ne i32 %21, 4
  br i1 %22, label %23, label %24

23:                                               ; preds = %20
  store i32 -1, ptr %6, align 4
  store i32 1, ptr %15, align 4
  br label %60

24:                                               ; preds = %20, %5
  %25 = load ptr, ptr %7, align 8, !tbaa !4
  %26 = getelementptr inbounds nuw %struct.AVFormatContext, ptr %25, i32 0, i32 29
  %27 = load ptr, ptr %26, align 8, !tbaa !209
  %28 = load ptr, ptr %10, align 8, !tbaa !38
  %29 = call ptr @av_dict_get(ptr noundef %27, ptr noundef %28, ptr noundef null, i32 noundef 0)
  store ptr %29, ptr %12, align 8, !tbaa !210
  %30 = icmp ne ptr %29, null
  br i1 %30, label %32, label %31

31:                                               ; preds = %24
  store i32 0, ptr %6, align 4
  store i32 1, ptr %15, align 4
  br label %60

32:                                               ; preds = %24
  %33 = load ptr, ptr %12, align 8, !tbaa !210
  %34 = getelementptr inbounds nuw %struct.AVDictionaryEntry, ptr %33, i32 0, i32 1
  %35 = load ptr, ptr %34, align 8, !tbaa !213
  %36 = call i32 @atoi(ptr noundef %35) #17
  %37 = trunc i32 %36 to i8
  store i8 %37, ptr %13, align 1, !tbaa !85
  %38 = load ptr, ptr %8, align 8, !tbaa !31
  %39 = load i32, ptr %14, align 4, !tbaa !32
  call void @avio_wb32(ptr noundef %38, i32 noundef %39)
  %40 = load ptr, ptr %8, align 8, !tbaa !31
  %41 = load ptr, ptr %9, align 8, !tbaa !38
  call void @ffio_wfourcc(ptr noundef %40, ptr noundef %41)
  %42 = load ptr, ptr %8, align 8, !tbaa !31
  %43 = load i32, ptr %14, align 4, !tbaa !32
  %44 = sub nsw i32 %43, 8
  call void @avio_wb32(ptr noundef %42, i32 noundef %44)
  %45 = load ptr, ptr %8, align 8, !tbaa !31
  call void @ffio_wfourcc(ptr noundef %45, ptr noundef @.str.506)
  %46 = load ptr, ptr %8, align 8, !tbaa !31
  call void @avio_wb32(ptr noundef %46, i32 noundef 21)
  %47 = load ptr, ptr %8, align 8, !tbaa !31
  call void @avio_wb32(ptr noundef %47, i32 noundef 0)
  %48 = load i32, ptr %11, align 4, !tbaa !32
  %49 = icmp eq i32 %48, 4
  br i1 %49, label %50, label %54

50:                                               ; preds = %32
  %51 = load ptr, ptr %8, align 8, !tbaa !31
  %52 = load i8, ptr %13, align 1, !tbaa !85
  %53 = zext i8 %52 to i32
  call void @avio_wb32(ptr noundef %51, i32 noundef %53)
  br label %58

54:                                               ; preds = %32
  %55 = load ptr, ptr %8, align 8, !tbaa !31
  %56 = load i8, ptr %13, align 1, !tbaa !85
  %57 = zext i8 %56 to i32
  call void @avio_w8(ptr noundef %55, i32 noundef %57)
  br label %58

58:                                               ; preds = %54, %50
  %59 = load i32, ptr %14, align 4, !tbaa !32
  store i32 %59, ptr %6, align 4
  store i32 1, ptr %15, align 4
  br label %60

60:                                               ; preds = %58, %31, %23
  call void @llvm.lifetime.end.p0(i64 4, ptr %14) #14
  call void @llvm.lifetime.end.p0(i64 1, ptr %13) #14
  call void @llvm.lifetime.end.p0(i64 8, ptr %12) #14
  %61 = load i32, ptr %6, align 4
  ret i32 %61
}