; Function Attrs: nounwind uwtable
define internal fastcc void @mov_write_int8_metadata(ptr noundef readonly captures(none) %0, ptr noundef %1, ptr noundef readonly captures(none) %2, ptr noundef %3, i32 noundef range(i32 1, 5) %4) unnamed_addr #0 {
  %6 = or disjoint i32 %4, 24
  switch i32 %4, label %22 [
    i32 4, label %7
    i32 1, label %7
  ]

7:                                                ; preds = %5, %5
  %8 = getelementptr inbounds nuw i8, ptr %0, i64 192
  %9 = load ptr, ptr %8, align 8, !tbaa !201
  %10 = tail call ptr @av_dict_get(ptr noundef %9, ptr noundef %3, ptr noundef null, i32 noundef 0) #16
  %.not = icmp eq ptr %10, null
  br i1 %.not, label %22, label %11

11:                                               ; preds = %7
  %12 = getelementptr inbounds nuw i8, ptr %10, i64 8
  %13 = load ptr, ptr %12, align 8, !tbaa !203
  %14 = tail call i64 @strtol(ptr noundef nonnull captures(none) %13, ptr noundef null, i32 noundef 10) #16
  %15 = trunc i64 %14 to i32
  tail call void @avio_wb32(ptr noundef %1, i32 noundef %6) #16
  %16 = load i32, ptr %2, align 1
  tail call void @avio_wl32(ptr noundef %1, i32 noundef %16) #16
  %17 = or disjoint i32 %4, 16
  tail call void @avio_wb32(ptr noundef %1, i32 noundef %17) #16
  tail call void @avio_wl32(ptr noundef %1, i32 noundef 1635017060) #16
  tail call void @avio_wb32(ptr noundef %1, i32 noundef 21) #16
  tail call void @avio_wb32(ptr noundef %1, i32 noundef 0) #16
  %18 = icmp eq i32 %4, 4
  %19 = and i32 %15, 255
  br i1 %18, label %20, label %21

20:                                               ; preds = %11
  tail call void @avio_wb32(ptr noundef %1, i32 noundef %19) #16
  br label %22

21:                                               ; preds = %11
  tail call void @avio_w8(ptr noundef %1, i32 noundef %19) #16
  br label %22

22:                                               ; preds = %20, %21, %7, %5
  ret void
}